target datalayout = "e-m:e-p270:32:32-p271:32:32-p272:64:64-i64:64-i128:128-f80:128-n8:16:32:64-S128"
target triple = "x86_64-pc-linux-gnu"

%struct.tjscalingfactor = type { i32, i32 }
%struct.tjregion = type { i32, i32, i32, i32 }
%struct._tjinstance = type { %struct.jpeg_compress_struct, %struct.jpeg_decompress_struct, %struct.my_error_mgr, i32, [200 x i8], i32, i32, i32, i32, i32, i32, i32, i32, i32, i32, i32, i32, i32, i32, i32, i32, i32, i32, i32, i32, i32, i32, i32, %struct.tjscalingfactor, %struct.tjregion, i32, i32 }
%struct.jpeg_compress_struct = type { ptr, ptr, ptr, ptr, i32, i32, ptr, i32, i32, i32, i32, double, i32, i32, i32, ptr, [4 x ptr], [4 x ptr], [4 x ptr], [16 x i8], [16 x i8], [16 x i8], i32, ptr, i32, i32, i32, i32, i32, i32, i32, i32, i32, i8, i8, i8, i16, i16, i32, i32, i32, i32, i32, i32, i32, [4 x ptr], i32, i32, i32, [10 x i32], i32, i32, i32, i32, ptr, ptr, ptr, ptr, ptr, ptr, ptr, ptr, ptr, ptr, i32 }
%struct.jpeg_decompress_struct = type { ptr, ptr, ptr, ptr, i32, i32, ptr, i32, i32, i32, i32, i32, i32, i32, double, i32, i32, i32, i32, i32, i32, i32, i32, i32, i32, i32, i32, i32, i32, i32, i32, i32, i32, ptr, i32, i32, i32, i32, i32, ptr, [4 x ptr], [4 x ptr], [4 x ptr], i32, ptr, i32, i32, [16 x i8], [16 x i8], [16 x i8], i32, i32, i8, i8, i8, i16, i16, i32, i8, i32, ptr, i32, i32, i32, i32, ptr, i32, [4 x ptr], i32, i32, i32, [10 x i32], i32, i32, i32, i32, i32, ptr, ptr, ptr, ptr, ptr, ptr, ptr, ptr, ptr, ptr, ptr }
%struct.my_error_mgr = type { %struct.jpeg_error_mgr, [1 x %struct.__jmp_buf_tag], ptr, i32, i32 }
%struct.jpeg_error_mgr = type { ptr, ptr, ptr, ptr, ptr, i32, %union.anon, i32, i64, ptr, i32, ptr, i32, i32 }
%union.anon = type { [8 x i32], [48 x i8] }
%struct.__jmp_buf_tag = type { [8 x i64], i32, %struct.__sigset_t }
%struct.__sigset_t = type { [16 x i64] }

@.str = private unnamed_addr constant [9 x i8] c"%s(): %s\00", align 1
@.str.4 = private unnamed_addr constant [21 x i8] c"%s(): Invalid handle\00", align 1
@.str.35 = private unnamed_addr constant [52 x i8] c"Instance has not been initialized for decompression\00", align 1
@tj3SetScalingFactor.FUNCTION_NAME = internal constant [20 x i8] c"tj3SetScalingFactor\00", align 16
@.str.61 = private unnamed_addr constant [27 x i8] c"Unsupported scaling factor\00", align 1

; Function Attrs: nounwind uwtable
define i32 @tj3SetScalingFactor(ptr noundef %0, i64 %1) #0 {
  %3 = alloca i32, align 4
  %4 = alloca %struct.tjscalingfactor, align 4
  %5 = alloca ptr, align 8
  %6 = alloca i32, align 4
  %7 = alloca i32, align 4
  %8 = alloca ptr, align 8
  store i64 %1, ptr %4, align 4
  store ptr %0, ptr %5, align 8
  store i32 0, ptr %7, align 4
  %9 = load ptr, ptr %5, align 8
  store ptr %9, ptr %8, align 8
  %10 = load ptr, ptr %8, align 8
  %11 = icmp ne ptr %10, null
  br i1 %11, label %16, label %12

12:                                               ; preds = %2
  %13 = call align 16 ptr @llvm.threadlocal.address.p0(ptr align 16 @errStr)
  %14 = getelementptr inbounds [200 x i8], ptr %13, i64 0, i64 0
  %15 = call i32 (ptr, i64, ptr, ...) @snprintf(ptr noundef %14, i64 noundef 200, ptr noundef @.str.4, ptr noundef @tj3SetScalingFactor.FUNCTION_NAME) #11
  store i32 -1, ptr %3, align 4
  br label %82

16:                                               ; preds = %2
  %17 = load ptr, ptr %8, align 8
  %18 = getelementptr inbounds %struct._tjinstance, ptr %17, i32 0, i32 2
  %19 = getelementptr inbounds %struct.my_error_mgr, ptr %18, i32 0, i32 3
  store i32 0, ptr %19, align 8
  %20 = load ptr, ptr %8, align 8
  %21 = getelementptr inbounds %struct._tjinstance, ptr %20, i32 0, i32 5
  store i32 0, ptr %21, align 4
  %22 = load ptr, ptr %8, align 8
  %23 = getelementptr inbounds %struct._tjinstance, ptr %22, i32 0, i32 3
  %24 = load i32, ptr %23, align 8
  %25 = and i32 %24, 2
  %26 = icmp eq i32 %25, 0
  br i1 %26, label %27, label %37

27:                                               ; preds = %16
  %28 = load ptr, ptr %8, align 8
  %29 = getelementptr inbounds %struct._tjinstance, ptr %28, i32 0, i32 4
  %30 = getelementptr inbounds [200 x i8], ptr %29, i64 0, i64 0
  %31 = call i32 (ptr, i64, ptr, ...) @snprintf(ptr noundef %30, i64 noundef 200, ptr noundef @.str, ptr noundef @tj3SetScalingFactor.FUNCTION_NAME, ptr noundef @.str.35) #11
  %32 = load ptr, ptr %8, align 8
  %33 = getelementptr inbounds %struct._tjinstance, ptr %32, i32 0, i32 5
  store i32 1, ptr %33, align 4
  %34 = call align 16 ptr @llvm.threadlocal.address.p0(ptr align 16 @errStr)
  %35 = getelementptr inbounds [200 x i8], ptr %34, i64 0, i64 0
  %36 = call i32 (ptr, i64, ptr, ...) @snprintf(ptr noundef %35, i64 noundef 200, ptr noundef @.str, ptr noundef @tj3SetScalingFactor.FUNCTION_NAME, ptr noundef @.str.35) #11
  store i32 -1, ptr %7, align 4
  br label %80

37:                                               ; preds = %16
  store i32 0, ptr %6, align 4
  br label %38

38:                                               ; preds = %61, %37
  %39 = load i32, ptr %6, align 4
  %40 = icmp slt i32 %39, 16
  br i1 %40, label %41, label %64

41:                                               ; preds = %38
  %42 = getelementptr inbounds %struct.tjscalingfactor, ptr %4, i32 0, i32 0
  %43 = load i32, ptr %42, align 4
  %44 = load i32, ptr %6, align 4
  %45 = sext i32 %44 to i64
  %46 = getelementptr inbounds [16 x %struct.tjscalingfactor], ptr @sf, i64 0, i64 %45
  %47 = getelementptr inbounds %struct.tjscalingfactor, ptr %46, i32 0, i32 0
  %48 = load i32, ptr %47, align 8
  %49 = icmp eq i32 %43, %48
  br i1 %49, label %50, label %60

50:                                               ; preds = %41
  %51 = getelementptr inbounds %struct.tjscalingfactor, ptr %4, i32 0, i32 1
  %52 = load i32, ptr %51, align 4
  %53 = load i32, ptr %6, align 4
  %54 = sext i32 %53 to i64
  %55 = getelementptr inbounds [16 x %struct.tjscalingfactor], ptr @sf, i64 0, i64 %54
  %56 = getelementptr inbounds %struct.tjscalingfactor, ptr %55, i32 0, i32 1
  %57 = load i32, ptr %56, align 4
  %58 = icmp eq i32 %52, %57
  br i1 %58, label %59, label %60

59:                                               ; preds = %50
  br label %64

60:                                               ; preds = %50, %41
  br label %61

61:                                               ; preds = %60
  %62 = load i32, ptr %6, align 4
  %63 = add nsw i32 %62, 1
  store i32 %63, ptr %6, align 4
  br label %38, !llvm.loop !50

64:                                               ; preds = %59, %38
  %65 = load i32, ptr %6, align 4
  %66 = icmp sge i32 %65, 16
  br i1 %66, label %67, label %77

67:                                               ; preds = %64
  %68 = load ptr, ptr %8, align 8
  %69 = getelementptr inbounds %struct._tjinstance, ptr %68, i32 0, i32 4
  %70 = getelementptr inbounds [200 x i8], ptr %69, i64 0, i64 0
  %71 = call i32 (ptr, i64, ptr, ...) @snprintf(ptr noundef %70, i64 noundef 200, ptr noundef @.str, ptr noundef @tj3SetScalingFactor.FUNCTION_NAME, ptr noundef @.str.61) #11
  %72 = load ptr, ptr %8, align 8
  %73 = getelementptr inbounds %struct._tjinstance, ptr %72, i32 0, i32 5
  store i32 1, ptr %73, align 4
  %74 = call align 16 ptr @llvm.threadlocal.address.p0(ptr align 16 @errStr)
  %75 = getelementptr inbounds [200 x i8], ptr %74, i64 0, i64 0
  %76 = call i32 (ptr, i64, ptr, ...) @snprintf(ptr noundef %75, i64 noundef 200, ptr noundef @.str, ptr noundef @tj3SetScalingFactor.FUNCTION_NAME, ptr noundef @.str.61) #11
  store i32 -1, ptr %7, align 4
  br label %80

77:                                               ; preds = %64
  %78 = load ptr, ptr %8, align 8
  %79 = getelementptr inbounds %struct._tjinstance, ptr %78, i32 0, i32 28
  call void @llvm.memcpy.p0.p0.i64(ptr align 8 %79, ptr align 4 %4, i64 8, i1 false)
  br label %80

80:                                               ; preds = %77, %67, %27
  %81 = load i32, ptr %7, align 4
  store i32 %81, ptr %3, align 4
  br label %82

82:                                               ; preds = %80, %12
  %83 = load i32, ptr %3, align 4
  ret i32 %83
}