; Function Attrs: nofree nounwind uwtable
define range(i32 -1, 1) i32 @tj3SetScalingFactor(ptr noundef %0, i64 %1) local_unnamed_addr #6 {
  %.sroa.0.0.extract.trunc = trunc i64 %1 to i32
  %.sroa.3.0.extract.shift = lshr i64 %1, 32
  %.sroa.3.0.extract.trunc = trunc nuw i64 %.sroa.3.0.extract.shift to i32
  %.not = icmp eq ptr %0, null
  br i1 %.not, label %3, label %6

3:                                                ; preds = %2
  %4 = tail call align 16 ptr @llvm.threadlocal.address.p0(ptr align 16 @errStr)
  %5 = tail call i32 (ptr, i64, ptr, ...) @snprintf(ptr noundef nonnull dereferenceable(1) %4, i64 noundef 200, ptr noundef nonnull @.str.4, ptr noundef nonnull @tj3SetScalingFactor.FUNCTION_NAME) #26
  br label %33

6:                                                ; preds = %2
  %7 = getelementptr inbounds i8, ptr %0, i64 1528
  store i32 0, ptr %7, align 8
  %8 = getelementptr inbounds i8, ptr %0, i64 1740
  store i32 0, ptr %8, align 4
  %9 = getelementptr inbounds i8, ptr %0, i64 1536
  %10 = load i32, ptr %9, align 8
  %11 = and i32 %10, 2
  %12 = icmp eq i32 %11, 0
  br i1 %12, label %13, label %.preheader

13:                                               ; preds = %6
  %14 = getelementptr inbounds i8, ptr %0, i64 1540
  %15 = tail call i32 (ptr, i64, ptr, ...) @snprintf(ptr noundef nonnull dereferenceable(1) %14, i64 noundef 200, ptr noundef nonnull @.str, ptr noundef nonnull @tj3SetScalingFactor.FUNCTION_NAME, ptr noundef nonnull @.str.35) #26
  store i32 1, ptr %8, align 4
  %16 = tail call align 16 ptr @llvm.threadlocal.address.p0(ptr align 16 @errStr)
  %17 = tail call i32 (ptr, i64, ptr, ...) @snprintf(ptr noundef nonnull dereferenceable(1) %16, i64 noundef 200, ptr noundef nonnull @.str, ptr noundef nonnull @tj3SetScalingFactor.FUNCTION_NAME, ptr noundef nonnull @.str.35) #26
  br label %33

.preheader:                                       ; preds = %6, %25
  %indvars.iv = phi i64 [ %indvars.iv.next, %25 ], [ 0, %6 ]
  %18 = getelementptr inbounds [16 x %struct.tjscalingfactor], ptr @sf, i64 0, i64 %indvars.iv
  %19 = load i32, ptr %18, align 8
  %20 = icmp eq i32 %19, %.sroa.0.0.extract.trunc
  br i1 %20, label %21, label %25

21:                                               ; preds = %.preheader
  %22 = getelementptr inbounds i8, ptr %18, i64 4
  %23 = load i32, ptr %22, align 4
  %24 = icmp eq i32 %23, %.sroa.3.0.extract.trunc
  br i1 %24, label %31, label %25

25:                                               ; preds = %.preheader, %21
  %indvars.iv.next = add nuw nsw i64 %indvars.iv, 1
  %exitcond.not = icmp eq i64 %indvars.iv.next, 16
  br i1 %exitcond.not, label %26, label %.preheader, !llvm.loop !48

26:                                               ; preds = %25
  %27 = getelementptr inbounds i8, ptr %0, i64 1540
  %28 = tail call i32 (ptr, i64, ptr, ...) @snprintf(ptr noundef nonnull dereferenceable(1) %27, i64 noundef 200, ptr noundef nonnull @.str, ptr noundef nonnull @tj3SetScalingFactor.FUNCTION_NAME, ptr noundef nonnull @.str.61) #26
  store i32 1, ptr %8, align 4
  %29 = tail call align 16 ptr @llvm.threadlocal.address.p0(ptr align 16 @errStr)
  %30 = tail call i32 (ptr, i64, ptr, ...) @snprintf(ptr noundef nonnull dereferenceable(1) %29, i64 noundef 200, ptr noundef nonnull @.str, ptr noundef nonnull @tj3SetScalingFactor.FUNCTION_NAME, ptr noundef nonnull @.str.61) #26
  br label %33

31:                                               ; preds = %21
  %32 = getelementptr inbounds i8, ptr %0, i64 1832
  store i32 %.sroa.0.0.extract.trunc, ptr %32, align 8
  %.sroa.3.0..sroa_idx = getelementptr inbounds i8, ptr %0, i64 1836
  store i32 %.sroa.3.0.extract.trunc, ptr %.sroa.3.0..sroa_idx, align 4
  br label %33

33:                                               ; preds = %13, %26, %31, %3
  %.0 = phi i32 [ -1, %3 ], [ -1, %13 ], [ -1, %26 ], [ 0, %31 ]
  ret i32 %.0
}